target datalayout = "e-m:e-p270:32:32-p271:32:32-p272:64:64-i64:64-i128:128-f80:128-n8:16:32:64-S128"
target triple = "x86_64-pc-linux-gnu"

@proto_ipmi = external global i32, align 4

; Function Attrs: null_pointer_is_valid sspstrong uwtable
define hidden void @proto_register_ipmi_se() #0 {
  %1 = alloca ptr, align 8
  call void @llvm.lifetime.start.p0(i64 8, ptr %1) #5
  %2 = load i32, ptr @proto_ipmi, align 4
  call void @proto_register_field_array(i32 noundef %2, ptr noundef @proto_register_ipmi_se.hf, i32 noundef 281)
  call void @proto_register_subtree_array(ptr noundef @proto_register_ipmi_se.ett, i32 noundef 47)
  %3 = load i32, ptr @proto_ipmi, align 4
  %4 = call ptr @expert_register_protocol(i32 noundef %3)
  store ptr %4, ptr %1, align 8
  %5 = load ptr, ptr %1, align 8
  call void @expert_register_field_array(ptr noundef %5, ptr noundef @proto_register_ipmi_se.ei, i32 noundef 2)
  call void @ipmi_register_netfn_cmdtab(i32 noundef 4, i32 noundef 0, ptr noundef null, i32 noundef 0, ptr noundef null, ptr noundef @cmd_se, i32 noundef 27)
  call void @llvm.lifetime.end.p0(i64 8, ptr %1) #5
  ret void
}