; Function Attrs: null_pointer_is_valid sspstrong uwtable
define hidden void @proto_register_ipmi_se() local_unnamed_addr #0 {
  %1 = load i32, ptr @proto_ipmi, align 4
  tail call void @proto_register_field_array(i32 noundef %1, ptr noundef nonnull @proto_register_ipmi_se.hf, i32 noundef 281)
  tail call void @proto_register_subtree_array(ptr noundef nonnull @proto_register_ipmi_se.ett, i32 noundef 47)
  %2 = load i32, ptr @proto_ipmi, align 4
  %3 = tail call ptr @expert_register_protocol(i32 noundef %2)
  tail call void @expert_register_field_array(ptr noundef %3, ptr noundef nonnull @proto_register_ipmi_se.ei, i32 noundef 2)
  tail call void @ipmi_register_netfn_cmdtab(i32 noundef 4, i32 noundef 0, ptr noundef null, i32 noundef 0, ptr noundef null, ptr noundef nonnull @cmd_se, i32 noundef 27)
  ret void
}